Certificate:
    Data:
        Version: 3 (0x2)
        Serial Number: 1 (0x1)
    Signature Algorithm: sha256WithRSAEncryption
        Issuer: C=CN, ST=CN, L=NanChongGaoPing, O=HubW, OU=HubW, CN=HubW/name=HubW/emailAddress=cnjiangui@163.com
        Validity
            Not Before: Aug 23 09:52:50 2019 GMT
            Not After : Aug 20 09:52:50 2029 GMT
        Subject: C=CN, ST=CN, L=NanChongGaoPing, O=HubW, OU=HubW, CN=root/name=HubW/emailAddress=cnjiangui@163.com
        Subject Public Key Info:
            Public Key Algorithm: rsaEncryption
                Public-Key: (4096 bit)
                Modulus:
                    00:9e:ab:2d:d3:84:24:87:55:de:e9:cd:cd:84:02:
                    9c:27:c3:29:a7:66:5e:48:06:24:8d:4b:22:5f:d9:
                    81:ca:7c:cd:33:53:e4:35:4b:39:4c:12:05:a1:72:
                    49:3d:52:a8:8f:33:3b:f2:d7:8e:8d:88:58:60:be:
                    23:97:7c:85:00:68:3f:f1:dc:08:5e:c9:72:e3:b7:
                    98:91:c9:bd:16:4b:a6:9c:0b:8b:eb:9c:1b:93:14:
                    fb:ed:ce:52:c1:d0:10:6a:70:15:00:bb:ff:d9:36:
                    45:2b:af:46:29:6f:23:a0:5e:3d:e9:00:44:6f:79:
                    95:4d:d2:1a:b1:38:5a:31:65:b7:0a:82:cc:22:87:
                    e4:cc:1c:29:35:8e:33:9a:f7:cc:61:d1:6f:f3:0d:
                    d9:10:bc:dd:68:43:fe:e3:ff:ab:84:e2:f1:cc:72:
                    e9:21:f9:35:e9:e5:b7:18:39:54:e3:e4:e3:91:81:
                    1e:75:6e:0e:b4:a4:6f:f8:71:5b:14:5b:fa:e4:ff:
                    0e:3f:02:8a:67:fe:c0:e7:46:aa:ca:2b:92:c0:a7:
                    ed:2c:e3:80:e4:a8:d2:52:eb:86:43:66:e5:e7:c4:
                    4f:56:9b:b2:93:95:2a:25:c1:c1:78:40:1f:3a:96:
                    e0:d7:f2:c2:26:99:a7:88:29:31:08:52:13:bc:a4:
                    6a:7b:c8:a9:c4:75:90:1d:98:4c:e3:54:14:59:36:
                    a1:69:76:b1:00:f6:41:9b:f3:e0:b8:a9:03:bb:82:
                    d1:f8:0d:56:8f:72:89:ea:7e:8f:b8:ed:3a:79:f7:
                    98:df:05:d3:8b:73:40:94:d4:d8:fe:ec:7e:ce:06:
                    c2:6b:6e:ce:21:03:2d:08:21:1c:32:3c:16:ca:c2:
                    e1:f9:87:a6:92:8e:9f:43:6b:d4:e2:75:75:32:12:
                    0f:1c:1c:9b:d6:aa:2a:3c:65:fc:01:35:16:b8:8e:
                    90:28:70:43:c1:9d:e8:1c:20:dd:ae:64:51:05:bb:
                    08:0d:b9:f3:2f:7f:62:c8:77:a2:5b:24:5d:ca:f2:
                    e9:7d:11:7a:58:54:6d:27:61:8a:8b:61:d7:c9:43:
                    ed:0e:0a:3d:4f:cf:84:5a:46:9a:a4:23:f4:10:20:
                    b2:27:33:d8:80:c2:f1:4a:2a:52:a6:f9:3e:5c:41:
                    f1:70:28:d0:fb:ce:4b:78:81:b4:d0:39:dc:dc:bf:
                    4b:b2:1d:c2:fb:a1:37:e7:d4:4f:46:0c:ab:6a:42:
                    fe:6f:af:61:02:97:f0:87:75:fb:3b:9d:19:21:f5:
                    b9:ec:c4:9b:16:ec:57:c6:85:86:cd:a3:9a:3b:96:
                    ad:e9:85:ad:e6:c4:26:c5:d2:05:d0:69:03:a0:9a:
                    31:9b:97
                Exponent: 65537 (0x10001)
        X509v3 extensions:
            X509v3 Basic Constraints: 
                CA:FALSE
            Netscape Cert Type: 
                SSL Server
            Netscape Comment: 
                Easy-RSA Generated Server Certificate
            X509v3 Subject Key Identifier: 
                7A:75:2D:D6:A8:A9:9F:15:B3:B9:5C:EA:08:21:3A:61:A4:79:A6:87
            X509v3 Authority Key Identifier: 
                keyid:FF:F0:7D:24:A0:1C:43:57:28:A2:03:64:8C:0D:E0:B3:11:4C:1F:E5
                DirName:/C=CN/ST=CN/L=NanChongGaoPing/O=HubW/OU=HubW/CN=HubW/name=HubW/emailAddress=cnjiangui@163.com
                serial:C9:D6:49:00:0F:26:FE:95

            X509v3 Extended Key Usage: 
                TLS Web Server Authentication
            X509v3 Key Usage: 
                Digital Signature, Key Encipherment
    Signature Algorithm: sha256WithRSAEncryption
         9b:f7:04:70:22:83:04:7e:42:9b:b2:74:9a:2c:1f:c1:e9:43:
         b9:07:66:e5:0d:b2:ec:92:cd:e9:33:a1:88:90:ee:76:1d:1a:
         e0:d2:20:a0:7e:e7:26:b3:09:d2:95:15:b7:d2:f0:40:59:8a:
         b8:60:17:a1:bc:83:34:24:96:06:fc:6c:b8:56:ca:6a:c6:c7:
         b2:4e:2f:e9:9d:ca:ae:46:11:c6:32:b4:a6:93:fa:9e:d5:01:
         38:51:75:56:f0:04:52:22:42:11:bf:01:bf:07:e7:74:eb:2f:
         f9:1e:b9:19:fe:51:61:a5:32:0b:e1:9f:80:29:dd:c6:5b:2d:
         3d:fc:1b:c6:4b:8d:77:0b:79:27:e1:f8:58:57:98:08:a8:e2:
         ba:5c:3a:2d:3b:73:59:c3:f8:55:fd:d9:0f:40:ab:d1:36:0a:
         9a:0a:3f:34:69:8a:26:86:3c:a7:2d:a5:2a:2a:07:85:94:ab:
         07:a9:40:69:f0:3f:0f:c6:21:3d:74:01:ec:13:e0:ed:94:6b:
         f1:e0:21:90:55:7a:e5:e5:66:19:c0:08:f7:7f:de:06:b8:9c:
         b4:94:e4:db:b7:7b:77:c6:9e:e5:02:eb:a6:ec:e7:a6:18:f6:
         4b:64:6f:d5:1f:bd:22:98:33:13:a0:0e:23:81:4b:d5:0b:e4:
         86:06:aa:c2:1c:87:57:95:fd:df:e1:f6:08:0d:6c:a3:c9:32:
         e4:23:90:5b:09:08:45:40:7d:69:ce:14:60:5d:41:7a:97:ff:
         0b:c4:55:72:e2:1d:72:d1:46:37:6a:77:c2:72:86:e2:a4:25:
         50:f7:e3:26:b5:22:8f:f7:b0:01:43:34:c8:97:25:40:97:f2:
         c5:23:45:ac:e9:dd:d1:d9:b4:7b:c9:12:b6:c7:ed:f2:2c:74:
         39:3b:b2:28:cb:46:a4:5c:aa:9a:a6:46:56:f4:de:46:50:18:
         4a:27:ac:50:3c:40:3c:c6:1d:10:2b:23:a8:25:29:5b:bf:12:
         57:5c:ce:d0:36:ca:12:a3:d4:56:71:c1:69:75:8b:c9:9e:05:
         a2:d1:ba:96:30:f4:69:53:c3:4c:9b:a7:18:25:9b:69:16:c7:
         03:87:21:66:da:9a:b0:4b:3a:4c:db:83:bd:23:60:d6:a3:0a:
         f2:57:a3:c0:36:f7:15:d5:7b:8b:53:4b:22:8e:91:3d:36:79:
         a3:3c:61:14:60:d4:34:80:0c:8b:79:04:ff:f5:19:d1:03:36:
         81:cd:e4:29:cc:ce:72:5d:14:67:e6:42:a9:2e:72:02:9b:ce:
         86:c6:ea:b2:3a:e2:53:77:78:8a:8d:84:da:a0:22:ef:77:f0:
         7e:db:8c:98:b3:6f:2b:84
-----BEGIN CERTIFICATE-----
MIIHBjCCBO6gAwIBAgIBATANBgkqhkiG9w0BAQsFADCBkjELMAkGA1UEBhMCQ04x
CzAJBgNVBAgTAkNOMRgwFgYDVQQHEw9OYW5DaG9uZ0dhb1BpbmcxDTALBgNVBAoT
BEh1YlcxDTALBgNVBAsTBEh1YlcxDTALBgNVBAMTBEh1YlcxDTALBgNVBCkTBEh1
YlcxIDAeBgkqhkiG9w0BCQEWEWNuamlhbmd1aUAxNjMuY29tMB4XDTE5MDgyMzA5
NTI1MFoXDTI5MDgyMDA5NTI1MFowgZIxCzAJBgNVBAYTAkNOMQswCQYDVQQIEwJD
TjEYMBYGA1UEBxMPTmFuQ2hvbmdHYW9QaW5nMQ0wCwYDVQQKEwRIdWJXMQ0wCwYD
VQQLEwRIdWJXMQ0wCwYDVQQDEwRyb290MQ0wCwYDVQQpEwRIdWJXMSAwHgYJKoZI
hvcNAQkBFhFjbmppYW5ndWlAMTYzLmNvbTCCAiIwDQYJKoZIhvcNAQEBBQADggIP
ADCCAgoCggIBAJ6rLdOEJIdV3unNzYQCnCfDKadmXkgGJI1LIl/Zgcp8zTNT5DVL
OUwSBaFyST1SqI8zO/LXjo2IWGC+I5d8hQBoP/HcCF7JcuO3mJHJvRZLppwLi+uc
G5MU++3OUsHQEGpwFQC7/9k2RSuvRilvI6BePekARG95lU3SGrE4WjFltwqCzCKH
5MwcKTWOM5r3zGHRb/MN2RC83WhD/uP/q4Ti8cxy6SH5Nenltxg5VOPk45GBHnVu
DrSkb/hxWxRb+uT/Dj8Cimf+wOdGqsorksCn7SzjgOSo0lLrhkNm5efET1abspOV
KiXBwXhAHzqW4NfywiaZp4gpMQhSE7ykanvIqcR1kB2YTONUFFk2oWl2sQD2QZvz
4LipA7uC0fgNVo9yiep+j7jtOnn3mN8F04tzQJTU2P7sfs4GwmtuziEDLQghHDI8
FsrC4fmHppKOn0Nr1OJ1dTISDxwcm9aqKjxl/AE1FriOkChwQ8Gd6Bwg3a5kUQW7
CA258y9/Ysh3olskXcry6X0RelhUbSdhioth18lD7Q4KPU/PhFpGmqQj9BAgsicz
2IDC8UoqUqb5PlxB8XAo0PvOS3iBtNA53Ny/S7IdwvuhN+fUT0YMq2pC/m+vYQKX
8Id1+zudGSH1uezEmxbsV8aFhs2jmjuWremFrebEJsXSBdBpA6CaMZuXAgMBAAGj
ggFjMIIBXzAJBgNVHRMEAjAAMBEGCWCGSAGG+EIBAQQEAwIGQDA0BglghkgBhvhC
AQ0EJxYlRWFzeS1SU0EgR2VuZXJhdGVkIFNlcnZlciBDZXJ0aWZpY2F0ZTAdBgNV
HQ4EFgQUenUt1qipnxWzuVzqCCE6YaR5pocwgccGA1UdIwSBvzCBvIAU//B9JKAc
Q1coogNkjA3gsxFMH+WhgZikgZUwgZIxCzAJBgNVBAYTAkNOMQswCQYDVQQIEwJD
TjEYMBYGA1UEBxMPTmFuQ2hvbmdHYW9QaW5nMQ0wCwYDVQQKEwRIdWJXMQ0wCwYD
VQQLEwRIdWJXMQ0wCwYDVQQDEwRIdWJXMQ0wCwYDVQQpEwRIdWJXMSAwHgYJKoZI
hvcNAQkBFhFjbmppYW5ndWlAMTYzLmNvbYIJAMnWSQAPJv6VMBMGA1UdJQQMMAoG
CCsGAQUFBwMBMAsGA1UdDwQEAwIFoDANBgkqhkiG9w0BAQsFAAOCAgEAm/cEcCKD
BH5Cm7J0miwfwelDuQdm5Q2y7JLN6TOhiJDudh0a4NIgoH7nJrMJ0pUVt9LwQFmK
uGAXobyDNCSWBvxsuFbKasbHsk4v6Z3KrkYRxjK0ppP6ntUBOFF1VvAEUiJCEb8B
vwfndOsv+R65Gf5RYaUyC+GfgCndxlstPfwbxkuNdwt5J+H4WFeYCKjiulw6LTtz
WcP4Vf3ZD0Cr0TYKmgo/NGmKJoY8py2lKioHhZSrB6lAafA/D8YhPXQB7BPg7ZRr
8eAhkFV65eVmGcAI93/eBrictJTk27d7d8ae5QLrpuznphj2S2Rv1R+9IpgzE6AO
I4FL1QvkhgaqwhyHV5X93+H2CA1so8ky5COQWwkIRUB9ac4UYF1Bepf/C8RVcuId
ctFGN2p3wnKG4qQlUPfjJrUij/ewAUM0yJclQJfyxSNFrOnd0dm0e8kStsft8ix0
OTuyKMtGpFyqmqZGVvTeRlAYSiesUDxAPMYdECsjqCUpW78SV1zO0DbKEqPUVnHB
aXWLyZ4FotG6ljD0aVPDTJunGCWbaRbHA4chZtqasEs6TNuDvSNg1qMK8lejwDb3
FdV7i1NLIo6RPTZ5ozxhFGDUNIAMi3kE//UZ0QM2gc3kKczOcl0UZ+ZCqS5yApvO
hsbqsjriU3d4io2E2qAi73fwftuMmLNvK4Q=
-----END CERTIFICATE-----
